target datalayout = "e-m:e-p270:32:32-p271:32:32-p272:64:64-i64:64-i128:128-f80:128-n8:16:32:64-S128"
target triple = "x86_64-pc-linux-gnu"

%struct.ZSTD_customMem = type { ptr, ptr, ptr }
%struct.ZSTD_frameParameters = type { i32, i32, i32 }
%struct.ZSTD_compressionParameters = type { i32, i32, i32, i32, i32, i32, i32 }
%struct.ZSTD_CCtx_s = type { i32, i32, i32, %struct.ZSTD_CCtx_params_s, %struct.ZSTD_CCtx_params_s, %struct.ZSTD_CCtx_params_s, i32, i64, %struct.ZSTD_cwksp, i64, i64, i64, i64, %struct.XXH64_state_s, %struct.ZSTD_customMem, ptr, i64, %struct.SeqCollector, i32, i32, %struct.SeqStore_t, %struct.ldmState_t, ptr, i64, %struct.RawSeqStore_t, %struct.ZSTD_blockState_t, ptr, i64, i32, ptr, i64, i64, i64, i64, ptr, i64, i64, i64, i32, i32, %struct.ZSTD_inBuffer_s, i64, i64, %struct.ZSTD_localDict, ptr, %struct.ZSTD_prefixDict_s, ptr, i64, %struct.ZSTD_blockSplitCtx, ptr, i64 }
%struct.ZSTD_CCtx_params_s = type { i32, %struct.ZSTD_compressionParameters, %struct.ZSTD_frameParameters, i32, i32, i64, i32, i32, i32, i32, i64, i32, i32, %struct.ldmParams_t, i32, i32, i32, i32, i32, i32, i32, i64, i32, i32, %struct.ZSTD_customMem, i32, i32, ptr, ptr, i32 }
%struct.ldmParams_t = type { i32, i32, i32, i32, i32, i32 }
%struct.ZSTD_cwksp = type { ptr, ptr, ptr, ptr, ptr, ptr, ptr, i8, i32, i32, i32 }
%struct.XXH64_state_s = type { i64, [4 x i64], [4 x i64], i32, i32, i64 }
%struct.SeqCollector = type { i32, ptr, i64, i64 }
%struct.SeqStore_t = type { ptr, ptr, ptr, ptr, ptr, ptr, ptr, i64, i64, i32, i32 }
%struct.ldmState_t = type { %struct.ZSTD_window_t, ptr, i32, ptr, [64 x i64], [64 x %struct.ldmMatchCandidate_t] }
%struct.ZSTD_window_t = type { ptr, ptr, ptr, i32, i32, i32 }
%struct.ldmMatchCandidate_t = type { ptr, i32, i32, ptr }
%struct.RawSeqStore_t = type { ptr, i64, i64, i64, i64 }
%struct.ZSTD_blockState_t = type { ptr, ptr, %struct.ZSTD_MatchState_t }
%struct.ZSTD_MatchState_t = type { %struct.ZSTD_window_t, i32, i32, i32, i32, ptr, [8 x i32], i64, i32, ptr, ptr, ptr, i32, i32, %struct.optState_t, ptr, %struct.ZSTD_compressionParameters, ptr, i32, i32 }
%struct.optState_t = type { ptr, ptr, ptr, ptr, ptr, ptr, i32, i32, i32, i32, i32, i32, i32, i32, i32, ptr, i32 }
%struct.ZSTD_inBuffer_s = type { ptr, i64, i64 }
%struct.ZSTD_localDict = type { ptr, ptr, i64, i32, ptr }
%struct.ZSTD_prefixDict_s = type { ptr, i64, i32 }
%struct.ZSTD_blockSplitCtx = type { %struct.SeqStore_t, %struct.SeqStore_t, %struct.SeqStore_t, %struct.SeqStore_t, %struct.SeqStore_t, [196 x i32], %struct.ZSTD_entropyCTablesMetadata_t }
%struct.ZSTD_entropyCTablesMetadata_t = type { %struct.ZSTD_hufCTablesMetadata_t, %struct.ZSTD_fseCTablesMetadata_t }
%struct.ZSTD_hufCTablesMetadata_t = type { i32, [128 x i8], i64 }
%struct.ZSTD_fseCTablesMetadata_t = type { i32, i32, i32, [133 x i8], i64, i64 }

; Function Attrs: inlinehint nounwind uwtable
define internal ptr @ZSTD_customMalloc(i64 noundef %0, ptr noundef byval(%struct.ZSTD_customMem) align 8 %1) #2 {
  %3 = alloca ptr, align 8
  %4 = alloca i64, align 8
  store i64 %0, ptr %4, align 8, !tbaa !3
  %5 = getelementptr inbounds nuw %struct.ZSTD_customMem, ptr %1, i32 0, i32 0
  %6 = load ptr, ptr %5, align 8, !tbaa !7
  %7 = icmp ne ptr %6, null
  br i1 %7, label %8, label %15

8:                                                ; preds = %2
  %9 = getelementptr inbounds nuw %struct.ZSTD_customMem, ptr %1, i32 0, i32 0
  %10 = load ptr, ptr %9, align 8, !tbaa !7
  %11 = getelementptr inbounds nuw %struct.ZSTD_customMem, ptr %1, i32 0, i32 2
  %12 = load ptr, ptr %11, align 8, !tbaa !13
  %13 = load i64, ptr %4, align 8, !tbaa !3
  %14 = call ptr %10(ptr noundef %12, i64 noundef %13)
  store ptr %14, ptr %3, align 8
  br label %18

15:                                               ; preds = %2
  %16 = load i64, ptr %4, align 8, !tbaa !3
  %17 = call noalias ptr @malloc(i64 noundef %16) #16
  store ptr %17, ptr %3, align 8
  br label %18

18:                                               ; preds = %15, %8
  %19 = load ptr, ptr %3, align 8
  ret ptr %19
}

; Function Attrs: nounwind uwtable
define i64 @ZSTD_CCtx_loadDictionary_advanced(ptr noundef %0, ptr noundef %1, i64 noundef %2, i32 noundef %3, i32 noundef %4) #0 {
  %6 = alloca i64, align 8
  %7 = alloca ptr, align 8
  %8 = alloca ptr, align 8
  %9 = alloca i64, align 8
  %10 = alloca i32, align 4
  %11 = alloca i32, align 4
  %12 = alloca ptr, align 8
  %13 = alloca i32, align 4
  store ptr %0, ptr %7, align 8, !tbaa !11
  store ptr %1, ptr %8, align 8, !tbaa !15
  store i64 %2, ptr %9, align 8, !tbaa !3
  store i32 %3, ptr %10, align 4, !tbaa !53
  store i32 %4, ptr %11, align 4, !tbaa !53
  br label %14

14:                                               ; preds = %5
  br label %15

15:                                               ; preds = %14
  br label %16

16:                                               ; preds = %15
  %17 = load ptr, ptr %7, align 8, !tbaa !11
  %18 = getelementptr inbounds nuw %struct.ZSTD_CCtx_s, ptr %17, i32 0, i32 38
  %19 = load i32, ptr %18, align 8, !tbaa !102
  %20 = icmp ne i32 %19, 0
  br i1 %20, label %21, label %30

21:                                               ; preds = %16
  br label %22

22:                                               ; preds = %21
  br label %23

23:                                               ; preds = %22
  br label %24

24:                                               ; preds = %23
  br label %25

25:                                               ; preds = %24
  br label %26

26:                                               ; preds = %25
  br label %27

27:                                               ; preds = %26
  br label %28

28:                                               ; preds = %27
  br label %29

29:                                               ; preds = %28
  store i64 -60, ptr %6, align 8
  br label %115

30:                                               ; preds = %16
  br label %31

31:                                               ; preds = %30
  %32 = load ptr, ptr %7, align 8, !tbaa !11
  call void @ZSTD_clearAllDicts(ptr noundef %32)
  %33 = load ptr, ptr %8, align 8, !tbaa !15
  %34 = icmp eq ptr %33, null
  br i1 %34, label %38, label %35

35:                                               ; preds = %31
  %36 = load i64, ptr %9, align 8, !tbaa !3
  %37 = icmp eq i64 %36, 0
  br i1 %37, label %38, label %39

38:                                               ; preds = %35, %31
  store i64 0, ptr %6, align 8
  br label %115

39:                                               ; preds = %35
  %40 = load i32, ptr %10, align 4, !tbaa !53
  %41 = icmp eq i32 %40, 1
  br i1 %41, label %42, label %47

42:                                               ; preds = %39
  %43 = load ptr, ptr %8, align 8, !tbaa !15
  %44 = load ptr, ptr %7, align 8, !tbaa !11
  %45 = getelementptr inbounds nuw %struct.ZSTD_CCtx_s, ptr %44, i32 0, i32 43
  %46 = getelementptr inbounds nuw %struct.ZSTD_localDict, ptr %45, i32 0, i32 1
  store ptr %43, ptr %46, align 8, !tbaa !143
  br label %106

47:                                               ; preds = %39
  call void @llvm.lifetime.start.p0(i64 8, ptr %12) #15
  br label %48

48:                                               ; preds = %47
  %49 = load ptr, ptr %7, align 8, !tbaa !11
  %50 = getelementptr inbounds nuw %struct.ZSTD_CCtx_s, ptr %49, i32 0, i32 16
  %51 = load i64, ptr %50, align 8, !tbaa !48
  %52 = icmp ne i64 %51, 0
  br i1 %52, label %53, label %66

53:                                               ; preds = %48
  br label %54

54:                                               ; preds = %53
  br label %55

55:                                               ; preds = %54
  br label %56

56:                                               ; preds = %55
  br label %57

57:                                               ; preds = %56
  br label %58

58:                                               ; preds = %57
  br label %59

59:                                               ; preds = %58
  br label %60

60:                                               ; preds = %59
  br label %61

61:                                               ; preds = %60
  br label %62

62:                                               ; preds = %61
  br label %63

63:                                               ; preds = %62
  br label %64

64:                                               ; preds = %63
  br label %65

65:                                               ; preds = %64
  store i64 -64, ptr %6, align 8
  store i32 1, ptr %13, align 4
  br label %103

66:                                               ; preds = %48
  br label %67

67:                                               ; preds = %66
  br label %68

68:                                               ; preds = %67
  %69 = load i64, ptr %9, align 8, !tbaa !3
  %70 = load ptr, ptr %7, align 8, !tbaa !11
  %71 = getelementptr inbounds nuw %struct.ZSTD_CCtx_s, ptr %70, i32 0, i32 14
  %72 = call ptr @ZSTD_customMalloc(i64 noundef %69, ptr noundef byval(%struct.ZSTD_customMem) align 8 %71)
  store ptr %72, ptr %12, align 8, !tbaa !15
  br label %73

73:                                               ; preds = %68
  %74 = load ptr, ptr %12, align 8, !tbaa !15
  %75 = icmp eq ptr %74, null
  br i1 %75, label %76, label %89

76:                                               ; preds = %73
  br label %77

77:                                               ; preds = %76
  br label %78

78:                                               ; preds = %77
  br label %79

79:                                               ; preds = %78
  br label %80

80:                                               ; preds = %79
  br label %81

81:                                               ; preds = %80
  br label %82

82:                                               ; preds = %81
  br label %83

83:                                               ; preds = %82
  br label %84

84:                                               ; preds = %83
  br label %85

85:                                               ; preds = %84
  br label %86

86:                                               ; preds = %85
  br label %87

87:                                               ; preds = %86
  br label %88

88:                                               ; preds = %87
  store i64 -64, ptr %6, align 8
  store i32 1, ptr %13, align 4
  br label %103

89:                                               ; preds = %73
  br label %90

90:                                               ; preds = %89
  br label %91

91:                                               ; preds = %90
  %92 = load ptr, ptr %12, align 8, !tbaa !15
  %93 = load ptr, ptr %8, align 8, !tbaa !15
  %94 = load i64, ptr %9, align 8, !tbaa !3
  call void @llvm.memcpy.p0.p0.i64(ptr align 1 %92, ptr align 1 %93, i64 %94, i1 false)
  %95 = load ptr, ptr %12, align 8, !tbaa !15
  %96 = load ptr, ptr %7, align 8, !tbaa !11
  %97 = getelementptr inbounds nuw %struct.ZSTD_CCtx_s, ptr %96, i32 0, i32 43
  %98 = getelementptr inbounds nuw %struct.ZSTD_localDict, ptr %97, i32 0, i32 0
  store ptr %95, ptr %98, align 8, !tbaa !144
  %99 = load ptr, ptr %12, align 8, !tbaa !15
  %100 = load ptr, ptr %7, align 8, !tbaa !11
  %101 = getelementptr inbounds nuw %struct.ZSTD_CCtx_s, ptr %100, i32 0, i32 43
  %102 = getelementptr inbounds nuw %struct.ZSTD_localDict, ptr %101, i32 0, i32 1
  store ptr %99, ptr %102, align 8, !tbaa !143
  store i32 0, ptr %13, align 4
  br label %103

103:                                              ; preds = %91, %88, %65
  call void @llvm.lifetime.end.p0(i64 8, ptr %12) #15
  %104 = load i32, ptr %13, align 4
  switch i32 %104, label %117 [
    i32 0, label %105
    i32 1, label %115
  ]

105:                                              ; preds = %103
  br label %106

106:                                              ; preds = %105, %42
  %107 = load i64, ptr %9, align 8, !tbaa !3
  %108 = load ptr, ptr %7, align 8, !tbaa !11
  %109 = getelementptr inbounds nuw %struct.ZSTD_CCtx_s, ptr %108, i32 0, i32 43
  %110 = getelementptr inbounds nuw %struct.ZSTD_localDict, ptr %109, i32 0, i32 2
  store i64 %107, ptr %110, align 8, !tbaa !145
  %111 = load i32, ptr %11, align 4, !tbaa !53
  %112 = load ptr, ptr %7, align 8, !tbaa !11
  %113 = getelementptr inbounds nuw %struct.ZSTD_CCtx_s, ptr %112, i32 0, i32 43
  %114 = getelementptr inbounds nuw %struct.ZSTD_localDict, ptr %113, i32 0, i32 3
  store i32 %111, ptr %114, align 8, !tbaa !146
  store i64 0, ptr %6, align 8
  br label %115

115:                                              ; preds = %106, %103, %38, %29
  %116 = load i64, ptr %6, align 8
  ret i64 %116

117:                                              ; preds = %103
  unreachable
}

; Function Attrs: nounwind uwtable
define i64 @ZSTD_CCtx_loadDictionary_byReference(ptr noundef %0, ptr noundef %1, i64 noundef %2) #0 {
  %4 = alloca ptr, align 8
  %5 = alloca ptr, align 8
  %6 = alloca i64, align 8
  store ptr %0, ptr %4, align 8, !tbaa !11
  store ptr %1, ptr %5, align 8, !tbaa !15
  store i64 %2, ptr %6, align 8, !tbaa !3
  %7 = load ptr, ptr %4, align 8, !tbaa !11
  %8 = load ptr, ptr %5, align 8, !tbaa !15
  %9 = load i64, ptr %6, align 8, !tbaa !3
  %10 = call i64 @ZSTD_CCtx_loadDictionary_advanced(ptr noundef %7, ptr noundef %8, i64 noundef %9, i32 noundef 1, i32 noundef 0)
  ret i64 %10
}