; Function Attrs: nounwind uwtable
define range(i64 -60, 1) i64 @ZSTD_CCtx_loadDictionary_byReference(ptr noundef captures(none) %0, ptr noundef %1, i64 noundef %2) local_unnamed_addr #2 {
  %4 = getelementptr inbounds nuw i8, ptr %0, i64 3640
  %5 = load i32, ptr %4, align 8, !tbaa !81
  %.not.i = icmp eq i32 %5, 0
  br i1 %.not.i, label %6, label %ZSTD_CCtx_loadDictionary_advanced.exit

6:                                                ; preds = %3
  tail call fastcc void @ZSTD_clearAllDicts(ptr noundef nonnull %0)
  %7 = icmp eq ptr %1, null
  %8 = icmp eq i64 %2, 0
  %or.cond.i = or i1 %7, %8
  br i1 %or.cond.i, label %ZSTD_CCtx_loadDictionary_advanced.exit, label %9

9:                                                ; preds = %6
  %10 = getelementptr inbounds nuw i8, ptr %0, i64 3696
  store ptr %1, ptr %10, align 8, !tbaa !120
  %11 = getelementptr inbounds nuw i8, ptr %0, i64 3704
  store i64 %2, ptr %11, align 8, !tbaa !121
  %12 = getelementptr inbounds nuw i8, ptr %0, i64 3712
  store i32 0, ptr %12, align 8, !tbaa !122
  br label %ZSTD_CCtx_loadDictionary_advanced.exit

ZSTD_CCtx_loadDictionary_advanced.exit:           ; preds = %3, %6, %9
  %.024.i = phi i64 [ 0, %9 ], [ -60, %3 ], [ 0, %6 ]
  ret i64 %.024.i
}